; ModuleID = 'source-C-CXX/28/391.c'
source_filename = "source-C-CXX/28/391.c"
target datalayout = "e-m:e-p270:32:32-p271:32:32-p272:64:64-i64:64-f80:128-n8:16:32:64-S128"
target triple = "x86_64-pc-linux-gnu"

@.str = private unnamed_addr constant [3 x i8] c"%d\00", align 1
@.str.1 = private unnamed_addr constant [6 x i8] c"%.3f\0A\00", align 1

; Function Attrs: nofree nounwind sspstrong uwtable
define dso_local i32 @main() local_unnamed_addr #0 {
  %1 = alloca i32, align 4
  %2 = alloca [100 x i32], align 16
  %3 = bitcast i32* %1 to i8*
  call void @llvm.lifetime.start.p0i8(i64 4, i8* nonnull %3) #3
  %4 = bitcast [100 x i32]* %2 to i8*
  call void @llvm.lifetime.start.p0i8(i64 400, i8* nonnull %4) #3
  %5 = call i32 (i8*, ...) @__isoc99_scanf(i8* getelementptr inbounds ([3 x i8], [3 x i8]* @.str, i64 0, i64 0), i32* nonnull %1)
  %6 = load i32, i32* %1, align 4, !tbaa !5
  %7 = icmp sgt i32 %6, 0
  br i1 %7, label %8, label %61

8:                                                ; preds = %0, %8
  %9 = phi i64 [ %12, %8 ], [ 0, %0 ]
  %10 = getelementptr inbounds [100 x i32], [100 x i32]* %2, i64 0, i64 %9
  %11 = call i32 (i8*, ...) @__isoc99_scanf(i8* getelementptr inbounds ([3 x i8], [3 x i8]* @.str, i64 0, i64 0), i32* nonnull %10)
  %12 = add nuw nsw i64 %9, 1
  %13 = load i32, i32* %1, align 4, !tbaa !5
  %14 = sext i32 %13 to i64
  %15 = icmp slt i64 %12, %14
  br i1 %15, label %8, label %16, !llvm.loop !9

16:                                               ; preds = %8
  %17 = icmp sgt i32 %13, 0
  br i1 %17, label %18, label %61

18:                                               ; preds = %16, %53
  %19 = phi i64 [ %57, %53 ], [ 0, %16 ]
  %20 = getelementptr inbounds [100 x i32], [100 x i32]* %2, i64 0, i64 %19
  %21 = load i32, i32* %20, align 4, !tbaa !5
  %22 = icmp sgt i32 %21, 1
  br i1 %22, label %23, label %53

23:                                               ; preds = %18
  %24 = zext i32 %21 to i64
  %25 = add nsw i64 %24, -1
  %26 = and i64 %25, 1
  %27 = icmp eq i32 %21, 2
  br i1 %27, label %43, label %28

28:                                               ; preds = %23
  %29 = and i64 %25, -2
  br label %30

30:                                               ; preds = %30, %28
  %31 = phi float [ 1.000000e+00, %28 ], [ %35, %30 ]
  %32 = phi float [ 2.000000e+00, %28 ], [ %38, %30 ]
  %33 = phi float [ 2.000000e+00, %28 ], [ %40, %30 ]
  %34 = phi i64 [ %29, %28 ], [ %41, %30 ]
  %35 = fadd float %32, %31
  %36 = fdiv float %35, %32
  %37 = fadd float %33, %36
  %38 = fadd float %35, %32
  %39 = fdiv float %38, %35
  %40 = fadd float %37, %39
  %41 = add i64 %34, -2
  %42 = icmp eq i64 %41, 0
  br i1 %42, label %43, label %30, !llvm.loop !11

43:                                               ; preds = %30, %23
  %44 = phi float [ undef, %23 ], [ %40, %30 ]
  %45 = phi float [ 1.000000e+00, %23 ], [ %35, %30 ]
  %46 = phi float [ 2.000000e+00, %23 ], [ %38, %30 ]
  %47 = phi float [ 2.000000e+00, %23 ], [ %40, %30 ]
  %48 = icmp eq i64 %26, 0
  br i1 %48, label %53, label %49

49:                                               ; preds = %43
  %50 = fadd float %46, %45
  %51 = fdiv float %50, %46
  %52 = fadd float %47, %51
  br label %53

53:                                               ; preds = %49, %43, %18
  %54 = phi float [ 2.000000e+00, %18 ], [ %44, %43 ], [ %52, %49 ]
  %55 = fpext float %54 to double
  %56 = call i32 (i8*, ...) @printf(i8* nonnull dereferenceable(1) getelementptr inbounds ([6 x i8], [6 x i8]* @.str.1, i64 0, i64 0), double %55)
  %57 = add nuw nsw i64 %19, 1
  %58 = load i32, i32* %1, align 4, !tbaa !5
  %59 = sext i32 %58 to i64
  %60 = icmp slt i64 %57, %59
  br i1 %60, label %18, label %61, !llvm.loop !12

61:                                               ; preds = %53, %0, %16
  call void @llvm.lifetime.end.p0i8(i64 400, i8* nonnull %4) #3
  call void @llvm.lifetime.end.p0i8(i64 4, i8* nonnull %3) #3
  ret i32 0
}

; Function Attrs: argmemonly mustprogress nofree nosync nounwind willreturn
declare void @llvm.lifetime.start.p0i8(i64 immarg, i8* nocapture) #1

; Function Attrs: nofree nounwind
declare noundef i32 @__isoc99_scanf(i8* nocapture noundef readonly, ...) local_unnamed_addr #2

; Function Attrs: nofree nounwind
declare noundef i32 @printf(i8* nocapture noundef readonly, ...) local_unnamed_addr #2

; Function Attrs: argmemonly mustprogress nofree nosync nounwind willreturn
declare void @llvm.lifetime.end.p0i8(i64 immarg, i8* nocapture) #1


!llvm.module.flags = !{!0, !1, !2, !3}
!llvm.ident = !{!4}

!0 = !{i32 1, !"wchar_size", i32 4}
!1 = !{i32 7, !"PIC Level", i32 2}
!2 = !{i32 7, !"PIE Level", i32 2}
!3 = !{i32 7, !"uwtable", i32 1}
!4 = !{!"clang version 13.0.0"}
!5 = !{!6, !6, i64 0}
!6 = !{!"int", !7, i64 0}
!7 = !{!"omnipotent char", !8, i64 0}
!8 = !{!"Simple C/C++ TBAA"}
!9 = distinct !{!9, !10}
!10 = !{!"llvm.loop.mustprogress"}
!11 = distinct !{!11, !10}
!12 = distinct !{!12, !10}
